; Function Attrs: mustprogress uwtable
define void @_ZN6marisa5Agent9set_queryEPKcm(ptr nocapture noundef nonnull align 8 dereferenceable(48) %0, ptr noundef %1, i64 noundef %2) local_unnamed_addr #5 align 2 personality ptr @__gxx_personality_v0 {
  %4 = icmp eq ptr %1, null
  %5 = icmp ne i64 %2, 0
  %or.cond = and i1 %4, %5
  br i1 %or.cond, label %6, label %12

6:                                                ; preds = %3
  %7 = tail call ptr @__cxa_allocate_exception(i64 32) #13
  store ptr getelementptr inbounds inrange(-16, 24) ({ [5 x ptr] }, ptr @_ZTVN6marisa9ExceptionE, i64 0, i32 0, i64 2), ptr %7, align 8
  %8 = getelementptr inbounds i8, ptr %7, i64 8
  store ptr @.str, ptr %8, align 8
  %9 = getelementptr inbounds i8, ptr %7, i64 16
  store i32 21, ptr %9, align 8
  %10 = getelementptr inbounds i8, ptr %7, i64 20
  store i32 2, ptr %10, align 4
  %11 = getelementptr inbounds i8, ptr %7, i64 24
  store ptr @.str.2, ptr %11, align 8
  tail call void @__cxa_throw(ptr nonnull %7, ptr nonnull @_ZTIN6marisa9ExceptionE, ptr nonnull @_ZN6marisa9ExceptionD2Ev) #14
  unreachable

12:                                               ; preds = %3
  %13 = getelementptr inbounds i8, ptr %0, i64 40
  %14 = load ptr, ptr %13, align 8
  %.not = icmp eq ptr %14, null
  br i1 %.not, label %17, label %15

15:                                               ; preds = %12
  %16 = getelementptr inbounds i8, ptr %14, i64 108
  store i32 0, ptr %16, align 4
  br label %17

17:                                               ; preds = %15, %12
  store ptr %1, ptr %0, align 8
  %18 = getelementptr inbounds i8, ptr %0, i64 8
  store i64 %2, ptr %18, align 8
  ret void
}